target datalayout = "e-m:e-p270:32:32-p271:32:32-p272:64:64-i64:64-i128:128-f80:128-n8:16:32:64-S128"
target triple = "x86_64-pc-linux-gnu"

%struct.expert_field = type { i32, i32 }
%struct._address = type { i32, i32, ptr, ptr }
%struct._packet_info = type { ptr, ptr, i32, i32, %struct.nstime_t, %struct.nstime_t, %struct.nstime_t, i8, ptr, ptr, ptr, ptr, %struct._address, %struct._address, %struct._address, %struct._address, %struct._address, %struct._address, i32, ptr, i8, [3 x i8], %struct.anon, i32, i32, i32, i32, ptr, i8, ptr, ptr, i16, i16, i32, i32, i16, i32, i32, ptr, ptr, ptr, i8, i8, i16, i16, i16, i32, i16, i16, ptr, ptr, ptr, ptr, ptr, i32, i32 }
%struct.nstime_t = type { i64, i32 }
%struct.anon = type { i8, [3 x i8] }
%struct._proto_node = type { ptr, ptr, ptr, ptr, ptr, ptr, ptr }
%struct.field_info = type { ptr, i32, i32, i32, i32, i32, i32, ptr, ptr, ptr, i32, i32 }

@hf_rtcp_last_sr_timestamp_frame = internal global i32 0, align 4
@hf_rtcp_time_since_last_sr = internal global i32 0, align 4
@hf_rtcp_roundtrip_delay = internal global i32 0, align 4
@ei_rtcp_roundtrip_delay = internal global %struct.expert_field zeroinitializer, align 4
@ei_rtcp_roundtrip_delay_negative = internal global %struct.expert_field zeroinitializer, align 4
@global_rtcp_show_roundtrip_calculation_minimum = internal global i32 10, align 4
@.str.925 = private unnamed_addr constant [39 x i8] c"RTCP round-trip delay detected (%d ms)\00", align 1
@.str.926 = private unnamed_addr constant [48 x i8] c"Negative RTCP round-trip delay detected (%d ms)\00", align 1
@.str.927 = private unnamed_addr constant [51 x i8] c" (roundtrip delay <-> %s = %dms, using frame %u)  \00", align 1

; Function Attrs: inlinehint nounwind null_pointer_is_valid sspstrong uwtable
define internal void @proto_item_set_generated(ptr noundef %0) #2 {
  %2 = alloca ptr, align 8
  store ptr %0, ptr %2, align 8
  %3 = load ptr, ptr %2, align 8
  %4 = icmp ne ptr %3, null
  br i1 %4, label %5, label %24

5:                                                ; preds = %1
  br label %6

6:                                                ; preds = %5
  %7 = load ptr, ptr %2, align 8
  %8 = getelementptr inbounds nuw %struct._proto_node, ptr %7, i32 0, i32 5
  %9 = load ptr, ptr %8, align 8
  %10 = icmp ne ptr %9, null
  br i1 %10, label %11, label %22

11:                                               ; preds = %6
  %12 = load ptr, ptr %2, align 8
  %13 = getelementptr inbounds nuw %struct._proto_node, ptr %12, i32 0, i32 5
  %14 = load ptr, ptr %13, align 8
  %15 = getelementptr inbounds nuw %struct.field_info, ptr %14, i32 0, i32 6
  %16 = load i32, ptr %15, align 4
  %17 = or i32 %16, 2
  %18 = load ptr, ptr %2, align 8
  %19 = getelementptr inbounds nuw %struct._proto_node, ptr %18, i32 0, i32 5
  %20 = load ptr, ptr %19, align 8
  %21 = getelementptr inbounds nuw %struct.field_info, ptr %20, i32 0, i32 6
  store i32 %17, ptr %21, align 4
  br label %22

22:                                               ; preds = %11, %6
  br label %23

23:                                               ; preds = %22
  br label %24

24:                                               ; preds = %23, %1
  ret void
}

; Function Attrs: null_pointer_is_valid sspstrong uwtable
define internal void @add_roundtrip_delay_info(ptr noundef %0, ptr noundef %1, ptr noundef %2, i32 noundef %3, i32 noundef %4, i32 noundef %5) #0 {
  %7 = alloca ptr, align 8
  %8 = alloca ptr, align 8
  %9 = alloca ptr, align 8
  %10 = alloca i32, align 4
  %11 = alloca i32, align 4
  %12 = alloca i32, align 4
  %13 = alloca ptr, align 8
  %14 = alloca i32, align 4
  store ptr %0, ptr %7, align 8
  store ptr %1, ptr %8, align 8
  store ptr %2, ptr %9, align 8
  store i32 %3, ptr %10, align 4
  store i32 %4, ptr %11, align 4
  store i32 %5, ptr %12, align 4
  call void @llvm.lifetime.start.p0(i64 8, ptr %13) #9
  %15 = load ptr, ptr %9, align 8
  %16 = load i32, ptr @hf_rtcp_last_sr_timestamp_frame, align 4
  %17 = load ptr, ptr %7, align 8
  %18 = load i32, ptr %10, align 4
  %19 = call ptr @proto_tree_add_uint(ptr noundef %15, i32 noundef %16, ptr noundef %17, i32 noundef 0, i32 noundef 0, i32 noundef %18)
  store ptr %19, ptr %13, align 8
  %20 = load ptr, ptr %13, align 8
  call void @proto_item_set_generated(ptr noundef %20)
  %21 = load ptr, ptr %9, align 8
  %22 = load i32, ptr @hf_rtcp_time_since_last_sr, align 4
  %23 = load ptr, ptr %7, align 8
  %24 = load i32, ptr %11, align 4
  %25 = call ptr @proto_tree_add_uint(ptr noundef %21, i32 noundef %22, ptr noundef %23, i32 noundef 0, i32 noundef 0, i32 noundef %24)
  store ptr %25, ptr %13, align 8
  %26 = load ptr, ptr %13, align 8
  call void @proto_item_set_generated(ptr noundef %26)
  %27 = load i32, ptr %12, align 4
  %28 = call i32 @llvm.abs.i32(i32 %27, i1 false)
  %29 = load i32, ptr @global_rtcp_show_roundtrip_calculation_minimum, align 4
  %30 = icmp slt i32 %28, %29
  br i1 %30, label %31, label %32

31:                                               ; preds = %6
  store i32 1, ptr %14, align 4
  br label %63

32:                                               ; preds = %6
  %33 = load ptr, ptr %9, align 8
  %34 = load i32, ptr @hf_rtcp_roundtrip_delay, align 4
  %35 = load ptr, ptr %7, align 8
  %36 = load i32, ptr %12, align 4
  %37 = call ptr @proto_tree_add_int(ptr noundef %33, i32 noundef %34, ptr noundef %35, i32 noundef 0, i32 noundef 0, i32 noundef %36)
  store ptr %37, ptr %13, align 8
  %38 = load ptr, ptr %13, align 8
  call void @proto_item_set_generated(ptr noundef %38)
  %39 = load i32, ptr %12, align 4
  %40 = icmp sge i32 %39, 0
  br i1 %40, label %41, label %46

41:                                               ; preds = %32
  %42 = load ptr, ptr %8, align 8
  %43 = load ptr, ptr %13, align 8
  %44 = load i32, ptr %12, align 4
  %45 = call ptr (ptr, ptr, ptr, ptr, ...) @expert_add_info_format(ptr noundef %42, ptr noundef %43, ptr noundef @ei_rtcp_roundtrip_delay, ptr noundef @.str.925, i32 noundef %44)
  br label %51

46:                                               ; preds = %32
  %47 = load ptr, ptr %8, align 8
  %48 = load ptr, ptr %13, align 8
  %49 = load i32, ptr %12, align 4
  %50 = call ptr (ptr, ptr, ptr, ptr, ...) @expert_add_info_format(ptr noundef %47, ptr noundef %48, ptr noundef @ei_rtcp_roundtrip_delay_negative, ptr noundef @.str.926, i32 noundef %49)
  br label %51

51:                                               ; preds = %46, %41
  %52 = load ptr, ptr %8, align 8
  %53 = getelementptr inbounds nuw %struct._packet_info, ptr %52, i32 0, i32 1
  %54 = load ptr, ptr %53, align 8
  %55 = load ptr, ptr %8, align 8
  %56 = getelementptr inbounds nuw %struct._packet_info, ptr %55, i32 0, i32 51
  %57 = load ptr, ptr %56, align 8
  %58 = load ptr, ptr %8, align 8
  %59 = getelementptr inbounds nuw %struct._packet_info, ptr %58, i32 0, i32 14
  %60 = call ptr @address_to_str(ptr noundef %57, ptr noundef %59)
  %61 = load i32, ptr %12, align 4
  %62 = load i32, ptr %10, align 4
  call void (ptr, i32, ptr, ...) @col_append_fstr(ptr noundef %54, i32 noundef 25, ptr noundef @.str.927, ptr noundef %60, i32 noundef %61, i32 noundef %62)
  store i32 0, ptr %14, align 4
  br label %63

63:                                               ; preds = %51, %31
  call void @llvm.lifetime.end.p0(i64 8, ptr %13) #9
  %64 = load i32, ptr %14, align 4
  switch i32 %64, label %66 [
    i32 0, label %65
    i32 1, label %65
  ]

65:                                               ; preds = %63, %63
  ret void

66:                                               ; preds = %63
  unreachable
}