; Function Attrs: null_pointer_is_valid sspstrong uwtable
define internal fastcc void @add_roundtrip_delay_info(ptr noundef %0, ptr noundef %1, ptr noundef %2, i32 noundef %3, i32 noundef %4, i32 noundef %5) unnamed_addr #0 {
  %7 = load i32, ptr @hf_rtcp_last_sr_timestamp_frame, align 4
  %8 = tail call ptr @proto_tree_add_uint(ptr noundef %2, i32 noundef %7, ptr noundef %0, i32 noundef 0, i32 noundef 0, i32 noundef %3)
  %.not.i = icmp eq ptr %8, null
  br i1 %.not.i, label %proto_item_set_generated.exit, label %9

9:                                                ; preds = %6
  %10 = getelementptr inbounds nuw i8, ptr %8, i64 40
  %11 = load ptr, ptr %10, align 8
  %.not5.i = icmp eq ptr %11, null
  br i1 %.not5.i, label %proto_item_set_generated.exit, label %12

12:                                               ; preds = %9
  %13 = getelementptr inbounds nuw i8, ptr %11, i64 28
  %14 = load i32, ptr %13, align 4
  %15 = or i32 %14, 2
  store i32 %15, ptr %13, align 4
  br label %proto_item_set_generated.exit

proto_item_set_generated.exit:                    ; preds = %6, %9, %12
  %16 = load i32, ptr @hf_rtcp_time_since_last_sr, align 4
  %17 = tail call ptr @proto_tree_add_uint(ptr noundef %2, i32 noundef %16, ptr noundef %0, i32 noundef 0, i32 noundef 0, i32 noundef %4)
  %.not.i24 = icmp eq ptr %17, null
  br i1 %.not.i24, label %proto_item_set_generated.exit26, label %18

18:                                               ; preds = %proto_item_set_generated.exit
  %19 = getelementptr inbounds nuw i8, ptr %17, i64 40
  %20 = load ptr, ptr %19, align 8
  %.not5.i25 = icmp eq ptr %20, null
  br i1 %.not5.i25, label %proto_item_set_generated.exit26, label %21

21:                                               ; preds = %18
  %22 = getelementptr inbounds nuw i8, ptr %20, i64 28
  %23 = load i32, ptr %22, align 4
  %24 = or i32 %23, 2
  store i32 %24, ptr %22, align 4
  br label %proto_item_set_generated.exit26

proto_item_set_generated.exit26:                  ; preds = %proto_item_set_generated.exit, %18, %21
  %25 = tail call i32 @llvm.abs.i32(i32 %5, i1 false)
  %26 = load i32, ptr @global_rtcp_show_roundtrip_calculation_minimum, align 4
  %27 = icmp slt i32 %25, %26
  br i1 %27, label %50, label %28

28:                                               ; preds = %proto_item_set_generated.exit26
  %29 = load i32, ptr @hf_rtcp_roundtrip_delay, align 4
  %30 = tail call ptr @proto_tree_add_int(ptr noundef %2, i32 noundef %29, ptr noundef %0, i32 noundef 0, i32 noundef 0, i32 noundef %5)
  %.not.i27 = icmp eq ptr %30, null
  br i1 %.not.i27, label %proto_item_set_generated.exit29, label %31

31:                                               ; preds = %28
  %32 = getelementptr inbounds nuw i8, ptr %30, i64 40
  %33 = load ptr, ptr %32, align 8
  %.not5.i28 = icmp eq ptr %33, null
  br i1 %.not5.i28, label %proto_item_set_generated.exit29, label %34

34:                                               ; preds = %31
  %35 = getelementptr inbounds nuw i8, ptr %33, i64 28
  %36 = load i32, ptr %35, align 4
  %37 = or i32 %36, 2
  store i32 %37, ptr %35, align 4
  br label %proto_item_set_generated.exit29

proto_item_set_generated.exit29:                  ; preds = %28, %31, %34
  %38 = icmp sgt i32 %5, -1
  br i1 %38, label %39, label %41

39:                                               ; preds = %proto_item_set_generated.exit29
  %40 = tail call ptr (ptr, ptr, ptr, ptr, ...) @expert_add_info_format(ptr noundef %1, ptr noundef %30, ptr noundef nonnull @ei_rtcp_roundtrip_delay, ptr noundef nonnull @.str.925, i32 noundef %5)
  br label %43

41:                                               ; preds = %proto_item_set_generated.exit29
  %42 = tail call ptr (ptr, ptr, ptr, ptr, ...) @expert_add_info_format(ptr noundef %1, ptr noundef %30, ptr noundef nonnull @ei_rtcp_roundtrip_delay_negative, ptr noundef nonnull @.str.926, i32 noundef %5)
  br label %43

43:                                               ; preds = %41, %39
  %44 = getelementptr inbounds nuw i8, ptr %1, i64 8
  %45 = load ptr, ptr %44, align 8
  %46 = getelementptr inbounds nuw i8, ptr %1, i64 408
  %47 = load ptr, ptr %46, align 8
  %48 = getelementptr inbounds nuw i8, ptr %1, i64 160
  %49 = tail call ptr @address_to_str(ptr noundef %47, ptr noundef nonnull %48)
  tail call void (ptr, i32, ptr, ...) @col_append_fstr(ptr noundef %45, i32 noundef 25, ptr noundef nonnull @.str.927, ptr noundef %49, i32 noundef %5, i32 noundef %3)
  br label %50

50:                                               ; preds = %proto_item_set_generated.exit26, %43
  ret void
}